; ModuleID = '14/854.c'
source_filename = "14/854.c"
target datalayout = "e-m:e-p270:32:32-p271:32:32-p272:64:64-i64:64-f80:128-n8:16:32:64-S128"
target triple = "x86_64-pc-linux-gnu"

%struct.student = type { i32, i32, i32, i32 }

@.str = private unnamed_addr constant [3 x i8] c"%d\00", align 1
@.str.1 = private unnamed_addr constant [9 x i8] c"%d %d %d\00", align 1
@.str.2 = private unnamed_addr constant [7 x i8] c"%d %d\0A\00", align 1

; Function Attrs: noinline nounwind uwtable
define dso_local i32 @main() #0 {
  %1 = alloca i32, align 4
  %2 = alloca i32, align 4
  %3 = alloca i32, align 4
  %4 = alloca i32, align 4
  %5 = alloca i32, align 4
  %6 = alloca i32, align 4
  %7 = alloca i32, align 4
  %8 = alloca i32, align 4
  %9 = alloca i32, align 4
  %10 = alloca i8*, align 8
  %11 = alloca i64, align 8
  store i32 0, i32* %1, align 4
  store i32 0, i32* %4, align 4
  store i32 0, i32* %6, align 4
  store i32 0, i32* %8, align 4
  %12 = call i32 (i8*, ...) @__isoc99_scanf(i8* getelementptr inbounds ([3 x i8], [3 x i8]* @.str, i64 0, i64 0), i32* %2)
  %13 = load i32, i32* %2, align 4
  %14 = zext i32 %13 to i64
  %15 = call i8* @llvm.stacksave()
  store i8* %15, i8** %10, align 8
  %16 = alloca %struct.student, i64 %14, align 16
  store i64 %14, i64* %11, align 8
  store i32 0, i32* %3, align 4
  br label %17

17:                                               ; preds = %50, %0
  %18 = load i32, i32* %3, align 4
  %19 = load i32, i32* %2, align 4
  %20 = icmp slt i32 %18, %19
  br i1 %20, label %21, label %53

21:                                               ; preds = %17
  %22 = load i32, i32* %3, align 4
  %23 = sext i32 %22 to i64
  %24 = getelementptr inbounds %struct.student, %struct.student* %16, i64 %23
  %25 = getelementptr inbounds %struct.student, %struct.student* %24, i32 0, i32 0
  %26 = load i32, i32* %3, align 4
  %27 = sext i32 %26 to i64
  %28 = getelementptr inbounds %struct.student, %struct.student* %16, i64 %27
  %29 = getelementptr inbounds %struct.student, %struct.student* %28, i32 0, i32 1
  %30 = load i32, i32* %3, align 4
  %31 = sext i32 %30 to i64
  %32 = getelementptr inbounds %struct.student, %struct.student* %16, i64 %31
  %33 = getelementptr inbounds %struct.student, %struct.student* %32, i32 0, i32 2
  %34 = call i32 (i8*, ...) @__isoc99_scanf(i8* getelementptr inbounds ([9 x i8], [9 x i8]* @.str.1, i64 0, i64 0), i32* %25, i32* %29, i32* %33)
  %35 = load i32, i32* %3, align 4
  %36 = sext i32 %35 to i64
  %37 = getelementptr inbounds %struct.student, %struct.student* %16, i64 %36
  %38 = getelementptr inbounds %struct.student, %struct.student* %37, i32 0, i32 1
  %39 = load i32, i32* %38, align 4
  %40 = load i32, i32* %3, align 4
  %41 = sext i32 %40 to i64
  %42 = getelementptr inbounds %struct.student, %struct.student* %16, i64 %41
  %43 = getelementptr inbounds %struct.student, %struct.student* %42, i32 0, i32 2
  %44 = load i32, i32* %43, align 8
  %45 = add nsw i32 %39, %44
  %46 = load i32, i32* %3, align 4
  %47 = sext i32 %46 to i64
  %48 = getelementptr inbounds %struct.student, %struct.student* %16, i64 %47
  %49 = getelementptr inbounds %struct.student, %struct.student* %48, i32 0, i32 3
  store i32 %45, i32* %49, align 4
  br label %50

50:                                               ; preds = %21
  %51 = load i32, i32* %3, align 4
  %52 = add nsw i32 %51, 1
  store i32 %52, i32* %3, align 4
  br label %17

53:                                               ; preds = %17
  store i32 0, i32* %3, align 4
  br label %54

54:                                               ; preds = %74, %53
  %55 = load i32, i32* %3, align 4
  %56 = load i32, i32* %2, align 4
  %57 = icmp slt i32 %55, %56
  br i1 %57, label %58, label %77

58:                                               ; preds = %54
  %59 = load i32, i32* %4, align 4
  %60 = load i32, i32* %3, align 4
  %61 = sext i32 %60 to i64
  %62 = getelementptr inbounds %struct.student, %struct.student* %16, i64 %61
  %63 = getelementptr inbounds %struct.student, %struct.student* %62, i32 0, i32 3
  %64 = load i32, i32* %63, align 4
  %65 = icmp slt i32 %59, %64
  br i1 %65, label %66, label %73

66:                                               ; preds = %58
  %67 = load i32, i32* %3, align 4
  %68 = sext i32 %67 to i64
  %69 = getelementptr inbounds %struct.student, %struct.student* %16, i64 %68
  %70 = getelementptr inbounds %struct.student, %struct.student* %69, i32 0, i32 3
  %71 = load i32, i32* %70, align 4
  store i32 %71, i32* %4, align 4
  %72 = load i32, i32* %3, align 4
  store i32 %72, i32* %5, align 4
  br label %73

73:                                               ; preds = %66, %58
  br label %74

74:                                               ; preds = %73
  %75 = load i32, i32* %3, align 4
  %76 = add nsw i32 %75, 1
  store i32 %76, i32* %3, align 4
  br label %54

77:                                               ; preds = %54
  store i32 0, i32* %3, align 4
  br label %78

78:                                               ; preds = %110, %77
  %79 = load i32, i32* %3, align 4
  %80 = load i32, i32* %2, align 4
  %81 = icmp slt i32 %79, %80
  br i1 %81, label %82, label %113

82:                                               ; preds = %78
  %83 = load i32, i32* %6, align 4
  %84 = load i32, i32* %3, align 4
  %85 = sext i32 %84 to i64
  %86 = getelementptr inbounds %struct.student, %struct.student* %16, i64 %85
  %87 = getelementptr inbounds %struct.student, %struct.student* %86, i32 0, i32 3
  %88 = load i32, i32* %87, align 4
  %89 = icmp slt i32 %83, %88
  br i1 %89, label %90, label %109

90:                                               ; preds = %82
  %91 = load i32, i32* %3, align 4
  %92 = sext i32 %91 to i64
  %93 = getelementptr inbounds %struct.student, %struct.student* %16, i64 %92
  %94 = getelementptr inbounds %struct.student, %struct.student* %93, i32 0, i32 3
  %95 = load i32, i32* %94, align 4
  %96 = load i32, i32* %4, align 4
  %97 = icmp sle i32 %95, %96
  br i1 %97, label %98, label %109

98:                                               ; preds = %90
  %99 = load i32, i32* %3, align 4
  %100 = load i32, i32* %5, align 4
  %101 = icmp ne i32 %99, %100
  br i1 %101, label %102, label %109

102:                                              ; preds = %98
  %103 = load i32, i32* %3, align 4
  %104 = sext i32 %103 to i64
  %105 = getelementptr inbounds %struct.student, %struct.student* %16, i64 %104
  %106 = getelementptr inbounds %struct.student, %struct.student* %105, i32 0, i32 3
  %107 = load i32, i32* %106, align 4
  store i32 %107, i32* %6, align 4
  %108 = load i32, i32* %3, align 4
  store i32 %108, i32* %7, align 4
  br label %109

109:                                              ; preds = %102, %98, %90, %82
  br label %110

110:                                              ; preds = %109
  %111 = load i32, i32* %3, align 4
  %112 = add nsw i32 %111, 1
  store i32 %112, i32* %3, align 4
  br label %78

113:                                              ; preds = %78
  store i32 0, i32* %3, align 4
  br label %114

114:                                              ; preds = %150, %113
  %115 = load i32, i32* %3, align 4
  %116 = load i32, i32* %2, align 4
  %117 = icmp slt i32 %115, %116
  br i1 %117, label %118, label %153

118:                                              ; preds = %114
  %119 = load i32, i32* %8, align 4
  %120 = load i32, i32* %3, align 4
  %121 = sext i32 %120 to i64
  %122 = getelementptr inbounds %struct.student, %struct.student* %16, i64 %121
  %123 = getelementptr inbounds %struct.student, %struct.student* %122, i32 0, i32 3
  %124 = load i32, i32* %123, align 4
  %125 = icmp slt i32 %119, %124
  br i1 %125, label %126, label %149

126:                                              ; preds = %118
  %127 = load i32, i32* %3, align 4
  %128 = sext i32 %127 to i64
  %129 = getelementptr inbounds %struct.student, %struct.student* %16, i64 %128
  %130 = getelementptr inbounds %struct.student, %struct.student* %129, i32 0, i32 3
  %131 = load i32, i32* %130, align 4
  %132 = load i32, i32* %6, align 4
  %133 = icmp sle i32 %131, %132
  br i1 %133, label %134, label %149

134:                                              ; preds = %126
  %135 = load i32, i32* %3, align 4
  %136 = load i32, i32* %5, align 4
  %137 = icmp ne i32 %135, %136
  br i1 %137, label %138, label %149

138:                                              ; preds = %134
  %139 = load i32, i32* %3, align 4
  %140 = load i32, i32* %7, align 4
  %141 = icmp ne i32 %139, %140
  br i1 %141, label %142, label %149

142:                                              ; preds = %138
  %143 = load i32, i32* %3, align 4
  %144 = sext i32 %143 to i64
  %145 = getelementptr inbounds %struct.student, %struct.student* %16, i64 %144
  %146 = getelementptr inbounds %struct.student, %struct.student* %145, i32 0, i32 3
  %147 = load i32, i32* %146, align 4
  store i32 %147, i32* %8, align 4
  %148 = load i32, i32* %3, align 4
  store i32 %148, i32* %9, align 4
  br label %149

149:                                              ; preds = %142, %138, %134, %126, %118
  br label %150

150:                                              ; preds = %149
  %151 = load i32, i32* %3, align 4
  %152 = add nsw i32 %151, 1
  store i32 %152, i32* %3, align 4
  br label %114

153:                                              ; preds = %114
  %154 = load i32, i32* %5, align 4
  %155 = sext i32 %154 to i64
  %156 = getelementptr inbounds %struct.student, %struct.student* %16, i64 %155
  %157 = getelementptr inbounds %struct.student, %struct.student* %156, i32 0, i32 0
  %158 = load i32, i32* %157, align 16
  %159 = load i32, i32* %4, align 4
  %160 = call i32 (i8*, ...) @printf(i8* getelementptr inbounds ([7 x i8], [7 x i8]* @.str.2, i64 0, i64 0), i32 %158, i32 %159)
  %161 = load i32, i32* %7, align 4
  %162 = sext i32 %161 to i64
  %163 = getelementptr inbounds %struct.student, %struct.student* %16, i64 %162
  %164 = getelementptr inbounds %struct.student, %struct.student* %163, i32 0, i32 0
  %165 = load i32, i32* %164, align 16
  %166 = load i32, i32* %6, align 4
  %167 = call i32 (i8*, ...) @printf(i8* getelementptr inbounds ([7 x i8], [7 x i8]* @.str.2, i64 0, i64 0), i32 %165, i32 %166)
  %168 = load i32, i32* %9, align 4
  %169 = sext i32 %168 to i64
  %170 = getelementptr inbounds %struct.student, %struct.student* %16, i64 %169
  %171 = getelementptr inbounds %struct.student, %struct.student* %170, i32 0, i32 0
  %172 = load i32, i32* %171, align 16
  %173 = load i32, i32* %8, align 4
  %174 = call i32 (i8*, ...) @printf(i8* getelementptr inbounds ([7 x i8], [7 x i8]* @.str.2, i64 0, i64 0), i32 %172, i32 %173)
  %175 = load i8*, i8** %10, align 8
  call void @llvm.stackrestore(i8* %175)
  %176 = load i32, i32* %1, align 4
  ret i32 %176
}

declare dso_local i32 @__isoc99_scanf(i8*, ...) #1

; Function Attrs: nounwind
declare i8* @llvm.stacksave() #2

declare dso_local i32 @printf(i8*, ...) #1

; Function Attrs: nounwind
declare void @llvm.stackrestore(i8*) #2


!llvm.module.flags = !{!0}
!llvm.ident = !{!1}

!0 = !{i32 1, !"wchar_size", i32 4}
!1 = !{!"clang version 10.0.0-4ubuntu1 "}
